target datalayout = "e-m:e-p270:32:32-p271:32:32-p272:64:64-i64:64-i128:128-f80:128-n8:16:32:64-S128"
target triple = "x86_64-pc-linux-gnu"

; Function Attrs: nounwind uwtable
define hidden i32 @uv__close_nocancel(i32 noundef %0) #0 {
  %2 = alloca i32, align 4
  store i32 %0, ptr %2, align 4
  %3 = load i32, ptr %2, align 4
  %4 = call i64 (i64, ...) @syscall(i64 noundef 3, i32 noundef %3) #11
  %5 = trunc i64 %4 to i32
  ret i32 %5
}

; Function Attrs: nounwind uwtable
define hidden i32 @uv__close_nocheckstdio(i32 noundef %0) #0 {
  %2 = alloca i32, align 4
  %3 = alloca i32, align 4
  %4 = alloca i32, align 4
  store i32 %0, ptr %2, align 4
  call void @llvm.lifetime.start.p0(i64 4, ptr %3) #11
  call void @llvm.lifetime.start.p0(i64 4, ptr %4) #11
  %5 = call ptr @__errno_location() #12
  %6 = load i32, ptr %5, align 4
  store i32 %6, ptr %3, align 4
  %7 = load i32, ptr %2, align 4
  %8 = call i32 @uv__close_nocancel(i32 noundef %7)
  store i32 %8, ptr %4, align 4
  %9 = load i32, ptr %4, align 4
  %10 = icmp eq i32 %9, -1
  br i1 %10, label %11, label %24

11:                                               ; preds = %1
  %12 = call ptr @__errno_location() #12
  %13 = load i32, ptr %12, align 4
  %14 = sub nsw i32 0, %13
  store i32 %14, ptr %4, align 4
  %15 = load i32, ptr %4, align 4
  %16 = icmp eq i32 %15, -4
  br i1 %16, label %20, label %17

17:                                               ; preds = %11
  %18 = load i32, ptr %4, align 4
  %19 = icmp eq i32 %18, -115
  br i1 %19, label %20, label %21

20:                                               ; preds = %17, %11
  store i32 0, ptr %4, align 4
  br label %21

21:                                               ; preds = %20, %17
  %22 = load i32, ptr %3, align 4
  %23 = call ptr @__errno_location() #12
  store i32 %22, ptr %23, align 4
  br label %24

24:                                               ; preds = %21, %1
  %25 = load i32, ptr %4, align 4
  call void @llvm.lifetime.end.p0(i64 4, ptr %4) #11
  call void @llvm.lifetime.end.p0(i64 4, ptr %3) #11
  ret i32 %25
}